; ModuleID = '60/1720.c'
source_filename = "60/1720.c"
target datalayout = "e-m:e-p270:32:32-p271:32:32-p272:64:64-i64:64-f80:128-n8:16:32:64-S128"
target triple = "x86_64-pc-linux-gnu"

%struct.couple = type { i32, i32, i32 }

@.str = private unnamed_addr constant [3 x i8] c"%d\00", align 1
@c = common dso_local global [100 x %struct.couple] zeroinitializer, align 16
@.str.1 = private unnamed_addr constant [7 x i8] c"empty\0A\00", align 1
@.str.2 = private unnamed_addr constant [7 x i8] c"%d %d\0A\00", align 1

; Function Attrs: noinline nounwind uwtable
define dso_local i32 @vege(i32 %0) #0 {
  %2 = alloca i32, align 4
  %3 = alloca i32, align 4
  %4 = alloca i32, align 4
  store i32 %0, i32* %2, align 4
  store i32 1, i32* %4, align 4
  %5 = load i32, i32* %2, align 4
  %6 = icmp eq i32 %5, 2
  br i1 %6, label %10, label %7

7:                                                ; preds = %1
  %8 = load i32, i32* %2, align 4
  %9 = icmp eq i32 %8, 3
  br i1 %9, label %10, label %11

10:                                               ; preds = %7, %1
  store i32 1, i32* %4, align 4
  br label %27

11:                                               ; preds = %7
  store i32 2, i32* %3, align 4
  br label %12

12:                                               ; preds = %23, %11
  %13 = load i32, i32* %3, align 4
  %14 = load i32, i32* %2, align 4
  %15 = icmp slt i32 %13, %14
  br i1 %15, label %16, label %26

16:                                               ; preds = %12
  %17 = load i32, i32* %2, align 4
  %18 = load i32, i32* %3, align 4
  %19 = srem i32 %17, %18
  %20 = icmp eq i32 %19, 0
  br i1 %20, label %21, label %22

21:                                               ; preds = %16
  store i32 0, i32* %4, align 4
  br label %26

22:                                               ; preds = %16
  br label %23

23:                                               ; preds = %22
  %24 = load i32, i32* %3, align 4
  %25 = add nsw i32 %24, 1
  store i32 %25, i32* %3, align 4
  br label %12

26:                                               ; preds = %21, %12
  br label %27

27:                                               ; preds = %26, %10
  %28 = load i32, i32* %4, align 4
  ret i32 %28
}

; Function Attrs: noinline nounwind uwtable
define dso_local i32 @main() #0 {
  %1 = alloca i32, align 4
  %2 = alloca i32, align 4
  %3 = alloca i32, align 4
  %4 = alloca i32, align 4
  %5 = alloca i32, align 4
  %6 = alloca i32, align 4
  store i32 0, i32* %1, align 4
  store i32 0, i32* %4, align 4
  store i32 0, i32* %5, align 4
  %7 = call i32 (i8*, ...) @__isoc99_scanf(i8* getelementptr inbounds ([3 x i8], [3 x i8]* @.str, i64 0, i64 0), i32* %2)
  store i32 2, i32* %3, align 4
  br label %8

8:                                                ; preds = %43, %0
  %9 = load i32, i32* %3, align 4
  %10 = load i32, i32* %2, align 4
  %11 = sub nsw i32 %10, 2
  %12 = icmp sle i32 %9, %11
  br i1 %12, label %13, label %46

13:                                               ; preds = %8
  %14 = load i32, i32* %3, align 4
  %15 = call i32 @vege(i32 %14)
  store i32 %15, i32* %6, align 4
  %16 = load i32, i32* %6, align 4
  %17 = icmp eq i32 %16, 1
  br i1 %17, label %18, label %42

18:                                               ; preds = %13
  %19 = load i32, i32* %3, align 4
  %20 = load i32, i32* %4, align 4
  %21 = sext i32 %20 to i64
  %22 = getelementptr inbounds [100 x %struct.couple], [100 x %struct.couple]* @c, i64 0, i64 %21
  %23 = getelementptr inbounds %struct.couple, %struct.couple* %22, i32 0, i32 0
  store i32 %19, i32* %23, align 4
  %24 = load i32, i32* %3, align 4
  %25 = add nsw i32 %24, 2
  %26 = load i32, i32* %4, align 4
  %27 = sext i32 %26 to i64
  %28 = getelementptr inbounds [100 x %struct.couple], [100 x %struct.couple]* @c, i64 0, i64 %27
  %29 = getelementptr inbounds %struct.couple, %struct.couple* %28, i32 0, i32 1
  store i32 %25, i32* %29, align 4
  %30 = load i32, i32* %4, align 4
  %31 = sext i32 %30 to i64
  %32 = getelementptr inbounds [100 x %struct.couple], [100 x %struct.couple]* @c, i64 0, i64 %31
  %33 = getelementptr inbounds %struct.couple, %struct.couple* %32, i32 0, i32 1
  %34 = load i32, i32* %33, align 4
  %35 = call i32 @vege(i32 %34)
  %36 = load i32, i32* %4, align 4
  %37 = sext i32 %36 to i64
  %38 = getelementptr inbounds [100 x %struct.couple], [100 x %struct.couple]* @c, i64 0, i64 %37
  %39 = getelementptr inbounds %struct.couple, %struct.couple* %38, i32 0, i32 2
  store i32 %35, i32* %39, align 4
  %40 = load i32, i32* %4, align 4
  %41 = add nsw i32 %40, 1
  store i32 %41, i32* %4, align 4
  br label %42

42:                                               ; preds = %18, %13
  br label %43

43:                                               ; preds = %42
  %44 = load i32, i32* %3, align 4
  %45 = add nsw i32 %44, 1
  store i32 %45, i32* %3, align 4
  br label %8

46:                                               ; preds = %8
  store i32 0, i32* %3, align 4
  br label %47

47:                                               ; preds = %60, %46
  %48 = load i32, i32* %3, align 4
  %49 = load i32, i32* %4, align 4
  %50 = icmp slt i32 %48, %49
  br i1 %50, label %51, label %63

51:                                               ; preds = %47
  %52 = load i32, i32* %3, align 4
  %53 = sext i32 %52 to i64
  %54 = getelementptr inbounds [100 x %struct.couple], [100 x %struct.couple]* @c, i64 0, i64 %53
  %55 = getelementptr inbounds %struct.couple, %struct.couple* %54, i32 0, i32 2
  %56 = load i32, i32* %55, align 4
  %57 = icmp eq i32 %56, 1
  br i1 %57, label %58, label %59

58:                                               ; preds = %51
  store i32 1, i32* %5, align 4
  br label %63

59:                                               ; preds = %51
  br label %60

60:                                               ; preds = %59
  %61 = load i32, i32* %3, align 4
  %62 = add nsw i32 %61, 1
  store i32 %62, i32* %3, align 4
  br label %47

63:                                               ; preds = %58, %47
  %64 = load i32, i32* %5, align 4
  %65 = icmp eq i32 %64, 0
  br i1 %65, label %66, label %68

66:                                               ; preds = %63
  %67 = call i32 (i8*, ...) @printf(i8* getelementptr inbounds ([7 x i8], [7 x i8]* @.str.1, i64 0, i64 0))
  br label %97

68:                                               ; preds = %63
  store i32 0, i32* %3, align 4
  br label %69

69:                                               ; preds = %93, %68
  %70 = load i32, i32* %3, align 4
  %71 = load i32, i32* %4, align 4
  %72 = icmp slt i32 %70, %71
  br i1 %72, label %73, label %96

73:                                               ; preds = %69
  %74 = load i32, i32* %3, align 4
  %75 = sext i32 %74 to i64
  %76 = getelementptr inbounds [100 x %struct.couple], [100 x %struct.couple]* @c, i64 0, i64 %75
  %77 = getelementptr inbounds %struct.couple, %struct.couple* %76, i32 0, i32 2
  %78 = load i32, i32* %77, align 4
  %79 = icmp eq i32 %78, 1
  br i1 %79, label %80, label %92

80:                                               ; preds = %73
  %81 = load i32, i32* %3, align 4
  %82 = sext i32 %81 to i64
  %83 = getelementptr inbounds [100 x %struct.couple], [100 x %struct.couple]* @c, i64 0, i64 %82
  %84 = getelementptr inbounds %struct.couple, %struct.couple* %83, i32 0, i32 0
  %85 = load i32, i32* %84, align 4
  %86 = load i32, i32* %3, align 4
  %87 = sext i32 %86 to i64
  %88 = getelementptr inbounds [100 x %struct.couple], [100 x %struct.couple]* @c, i64 0, i64 %87
  %89 = getelementptr inbounds %struct.couple, %struct.couple* %88, i32 0, i32 1
  %90 = load i32, i32* %89, align 4
  %91 = call i32 (i8*, ...) @printf(i8* getelementptr inbounds ([7 x i8], [7 x i8]* @.str.2, i64 0, i64 0), i32 %85, i32 %90)
  br label %92

92:                                               ; preds = %80, %73
  br label %93

93:                                               ; preds = %92
  %94 = load i32, i32* %3, align 4
  %95 = add nsw i32 %94, 1
  store i32 %95, i32* %3, align 4
  br label %69

96:                                               ; preds = %69
  br label %97

97:                                               ; preds = %96, %66
  ret i32 0
}

declare dso_local i32 @__isoc99_scanf(i8*, ...) #1

declare dso_local i32 @printf(i8*, ...) #1


!llvm.module.flags = !{!0}
!llvm.ident = !{!1}

!0 = !{i32 1, !"wchar_size", i32 4}
!1 = !{!"clang version 10.0.0-4ubuntu1 "}
